target datalayout = "e-m:e-p270:32:32-p271:32:32-p272:64:64-i64:64-i128:128-f80:128-n8:16:32:64-S128"
target triple = "x86_64-pc-linux-gnu"

@_ZN6casadi10SXFunctionC1ERNS_19DeserializingStreamE = unnamed_addr alias void (ptr, ptr), ptr @_ZN6casadi10SXFunctionC2ERNS_19DeserializingStreamE

; Function Attrs: mustprogress uwtable
define noundef ptr @_ZN6casadi10SXFunction11deserializeERNS_19DeserializingStreamE(ptr noundef nonnull align 8 dereferenceable(41) %0) #4 align 2 personality ptr @__gxx_personality_v0 {
  %2 = alloca ptr, align 8
  %3 = alloca ptr, align 8
  %4 = alloca i32, align 4
  store ptr %0, ptr %2, align 8
  %5 = call noalias noundef nonnull ptr @_Znwm(i64 noundef 1488) #21
  %6 = load ptr, ptr %2, align 8
  invoke void @_ZN6casadi10SXFunctionC1ERNS_19DeserializingStreamE(ptr noundef nonnull align 8 dereferenceable(1483) %5, ptr noundef nonnull align 8 dereferenceable(41) %6)
          to label %7 unwind label %8

7:                                                ; preds = %1
  ret ptr %5

8:                                                ; preds = %1
  %9 = landingpad { ptr, i32 }
          cleanup
  %10 = extractvalue { ptr, i32 } %9, 0
  store ptr %10, ptr %3, align 8
  %11 = extractvalue { ptr, i32 } %9, 1
  store i32 %11, ptr %4, align 4
  call void @_ZdlPv(ptr noundef %5) #20
  br label %12

12:                                               ; preds = %8
  %13 = load ptr, ptr %3, align 8
  %14 = load i32, ptr %4, align 4
  %15 = insertvalue { ptr, i32 } poison, ptr %13, 0
  %16 = insertvalue { ptr, i32 } %15, i32 %14, 1
  resume { ptr, i32 } %16
}