; Function Attrs: mustprogress uwtable
define noundef ptr @_ZN6casadi10SXFunction11deserializeERNS_19DeserializingStreamE(ptr noundef nonnull align 8 dereferenceable(41) %0) local_unnamed_addr #3 align 2 personality ptr @__gxx_personality_v0 {
  %2 = tail call noalias noundef nonnull dereferenceable(1488) ptr @_Znwm(i64 noundef 1488) #30
  invoke void @_ZN6casadi10SXFunctionC1ERNS_19DeserializingStreamE(ptr noundef nonnull align 8 dereferenceable(1483) %2, ptr noundef nonnull align 8 dereferenceable(41) %0)
          to label %3 unwind label %4

3:                                                ; preds = %1
  ret ptr %2

4:                                                ; preds = %1
  %5 = landingpad { ptr, i32 }
          cleanup
  tail call void @_ZdlPv(ptr noundef nonnull %2) #27
  resume { ptr, i32 } %5
}